Certificate:
    Data:
        Version: 3 (0x2)
        Serial Number:
            2a:a3:f8:ff:c3:b5:62:af:c6:78:45:38:9a:5f:2c:5a
        Signature Algorithm: sha256WithRSAEncryption
        Issuer: CN=Easy-RSA CA
        Validity
            Not Before: Apr 25 15:34:30 2024 GMT
            Not After : Aug 27 15:34:30 3023 GMT
        Subject: CN=testsuite
        Subject Public Key Info:
            Public Key Algorithm: rsaEncryption
                Public-Key: (2048 bit)
                Modulus:
                    00:bc:0d:37:f1:b1:2d:4c:0e:af:a1:51:85:92:1f:
                    1b:3c:ef:04:18:24:d1:d6:0e:eb:73:64:86:da:c6:
                    65:e2:b2:74:fb:6e:c0:b9:5d:fe:67:61:44:3a:bf:
                    20:6e:a7:53:9c:7b:8e:6b:ec:c4:55:ec:0b:f9:44:
                    08:6a:54:35:59:82:9a:63:60:0b:37:dd:22:5d:e3:
                    43:81:4e:51:ae:0a:67:31:bb:b1:d3:70:0e:a8:46:
                    2f:11:ec:b6:e9:58:25:0a:c9:72:4a:97:f1:d5:7a:
                    0d:68:90:eb:73:c2:e1:81:12:cd:08:1b:21:e9:ce:
                    58:3e:dc:81:de:b7:65:31:bd:c4:8b:5a:d1:06:9b:
                    c0:ea:b7:63:8f:fb:a5:67:37:7e:d5:69:07:56:67:
                    f3:e7:37:5d:84:86:52:25:94:9e:6a:60:a2:5c:bf:
                    5e:0b:cb:c8:83:1a:17:51:84:f1:16:f0:83:46:b6:
                    bb:97:f3:4f:ba:41:1f:30:a8:d5:ee:4e:2e:78:00:
                    9b:25:fd:0c:ec:cc:57:a3:82:b5:54:56:fd:25:f9:
                    ff:b8:5f:1b:55:ae:57:16:35:0d:cc:9a:cf:d0:2c:
                    4a:dd:d5:ae:2a:7e:76:73:af:b8:d9:a0:35:61:82:
                    3d:a0:d1:ce:a3:d8:82:1b:0c:9a:bc:a5:0b:2d:00:
                    d0:e9
                Exponent: 65537 (0x10001)
        X509v3 extensions:
            X509v3 Basic Constraints: 
                CA:FALSE
            X509v3 Subject Key Identifier: 
                20:11:06:2E:BB:B0:0B:05:D4:CE:4F:BC:5F:51:39:E7:96:94:4F:26
            X509v3 Authority Key Identifier: 
                keyid:DB:4B:A9:95:2C:AD:05:9F:CF:C8:3C:DE:3B:2C:27:81:D7:28:65:48
                DirName:/CN=Easy-RSA CA
                serial:66:32:E7:15:AE:20:E2:D7:6B:0E:3B:A3:50:C1:25:5A:45:69:14:A0
            X509v3 Extended Key Usage: 
                TLS Web Server Authentication
            X509v3 Key Usage: 
                Digital Signature, Key Encipherment
            X509v3 Subject Alternative Name: 
                DNS:testsuite
    Signature Algorithm: sha256WithRSAEncryption
    Signature Value:
        78:b1:28:25:f5:17:7a:c2:a0:2e:b8:bb:15:dc:aa:e8:8f:aa:
        ae:f3:48:0e:46:29:71:d7:24:6b:cd:da:4e:b1:8c:1a:40:01:
        79:03:ca:2d:45:76:c9:08:61:50:eb:03:9c:82:9f:d6:37:d8:
        60:42:fc:59:35:b7:42:69:fd:36:45:93:a3:17:df:dd:5d:84:
        19:04:70:4f:c8:5f:3e:96:27:49:03:81:a7:55:2c:16:7e:be:
        65:26:71:48:eb:5b:36:38:c1:a9:87:f0:ad:2e:40:5b:e8:12:
        39:f5:d0:60:71:55:d7:4b:fb:d0:bf:35:11:fb:2e:9c:4f:e6:
        b1:35:c6:45:b4:73:68:99:d9:27:fa:4e:98:25:7d:6e:7c:1b:
        22:e8:c2:83:6f:3b:1f:4c:27:70:94:1a:ef:fb:2b:fd:9d:3c:
        a2:ce:f2:4b:d1:8e:e7:6d:db:ec:22:1c:b9:b4:c1:bc:17:82:
        ea:e1:1f:76:1a:4a:d6:59:b3:24:e5:e4:67:b9:ce:d3:73:67:
        dd:48:82:04:bc:8f:50:34:c0:0e:42:6e:7e:63:ac:e6:ab:71:
        b7:79:5b:f7:8e:8c:48:ac:ef:ae:c6:b0:e9:ae:d7:94:9b:58:
        e9:2b:e8:40:93:1b:62:51:2d:06:a4:ca:8c:e6:7e:8c:5a:d0:
        6d:69:86:6f
-----BEGIN CERTIFICATE-----
MIIDbzCCAlegAwIBAgIQKqP4/8O1Yq/GeEU4ml8sWjANBgkqhkiG9w0BAQsFADAW
MRQwEgYDVQQDDAtFYXN5LVJTQSBDQTAgFw0yNDA0MjUxNTM0MzBaGA8zMDIzMDgy
NzE1MzQzMFowFDESMBAGA1UEAwwJdGVzdHN1aXRlMIIBIjANBgkqhkiG9w0BAQEF
AAOCAQ8AMIIBCgKCAQEAvA038bEtTA6voVGFkh8bPO8EGCTR1g7rc2SG2sZl4rJ0
+27AuV3+Z2FEOr8gbqdTnHuOa+zEVewL+UQIalQ1WYKaY2ALN90iXeNDgU5Rrgpn
Mbux03AOqEYvEey26VglCslySpfx1XoNaJDrc8LhgRLNCBsh6c5YPtyB3rdlMb3E
i1rRBpvA6rdjj/ulZzd+1WkHVmfz5zddhIZSJZSeamCiXL9eC8vIgxoXUYTxFvCD
Rra7l/NPukEfMKjV7k4ueACbJf0M7MxXo4K1VFb9Jfn/uF8bVa5XFjUNzJrP0CxK
3dWuKn52c6+42aA1YYI9oNHOo9iCGwyavKULLQDQ6QIDAQABo4G4MIG1MAkGA1Ud
EwQCMAAwHQYDVR0OBBYEFCARBi67sAsF1M5PvF9ROeeWlE8mMFEGA1UdIwRKMEiA
FNtLqZUsrQWfz8g83jssJ4HXKGVIoRqkGDAWMRQwEgYDVQQDDAtFYXN5LVJTQSBD
QYIUZjLnFa4g4tdrDjujUMElWkVpFKAwEwYDVR0lBAwwCgYIKwYBBQUHAwEwCwYD
VR0PBAQDAgWgMBQGA1UdEQQNMAuCCXRlc3RzdWl0ZTANBgkqhkiG9w0BAQsFAAOC
AQEAeLEoJfUXesKgLri7Fdyq6I+qrvNIDkYpcdcka83aTrGMGkABeQPKLUV2yQhh
UOsDnIKf1jfYYEL8WTW3Qmn9NkWToxff3V2EGQRwT8hfPpYnSQOBp1UsFn6+ZSZx
SOtbNjjBqYfwrS5AW+gSOfXQYHFV10v70L81EfsunE/msTXGRbRzaJnZJ/pOmCV9
bnwbIujCg287H0wncJQa7/sr/Z08os7yS9GO523b7CIcubTBvBeC6uEfdhpK1lmz
JOXkZ7nO03Nn3UiCBLyPUDTADkJufmOs5qtxt3lb946MSKzvrsaw6a7XlJtY6Svo
QJMbYlEtBqTKjOZ+jFrQbWmGbw==
-----END CERTIFICATE-----
