Certificate:
    Data:
        Version: 3 (0x2)
        Serial Number:
            fa:ee:71:ac:9c:f8:5b:80:4d:ce:4b:d3:57:f8:32:09
        Signature Algorithm: sha256WithRSAEncryption
        Issuer: CN=Easy-RSA CA
        Validity
            Not Before: Apr 25 15:34:18 2024 GMT
            Not After : Aug 27 15:34:18 3023 GMT
        Subject: CN=alttest
        Subject Public Key Info:
            Public Key Algorithm: rsaEncryption
                Public-Key: (2048 bit)
                Modulus:
                    00:94:f6:7e:2b:41:ee:00:d6:f5:2f:54:66:f4:41:
                    39:69:ee:64:0b:15:46:59:ce:00:b6:bf:2a:aa:f7:
                    0e:75:c4:e5:a1:b7:b3:86:1c:24:06:fa:91:41:f1:
                    0b:87:3a:ee:26:27:28:62:1d:ac:35:54:e5:a3:ac:
                    48:a7:9a:aa:be:2e:60:52:7c:de:cf:c3:28:11:42:
                    57:52:9d:44:24:8f:b0:b6:fb:36:ef:4f:aa:7e:2c:
                    57:5e:07:8a:03:fc:18:03:e8:58:6b:88:98:a8:93:
                    ac:69:01:b1:9c:ef:3b:fe:04:47:9e:28:e2:c6:15:
                    f9:5c:df:de:24:1e:2f:a4:e0:b2:01:94:7e:b8:00:
                    76:b0:dd:36:55:22:f2:2d:3a:c7:b1:d8:67:7e:ca:
                    2d:22:b8:dc:9d:87:34:0c:c1:11:c7:72:2b:b8:ed:
                    1b:d8:75:6d:0d:49:e1:f6:bf:12:dd:19:84:87:2e:
                    6d:c6:7d:7e:42:33:2a:05:a2:ff:5d:07:10:83:a4:
                    c0:35:a9:f8:00:96:29:9f:bc:53:6c:81:18:7b:e4:
                    c6:41:54:7f:12:a3:5a:77:cb:0f:cf:52:8c:83:9a:
                    30:03:ca:77:65:b2:c0:0b:00:67:86:50:77:b1:f5:
                    79:b7:20:62:25:f8:3b:ca:cd:c4:da:d1:c0:81:fd:
                    db:8b
                Exponent: 65537 (0x10001)
        X509v3 extensions:
            X509v3 Basic Constraints: 
                CA:FALSE
            X509v3 Subject Key Identifier: 
                04:2E:A0:68:00:D7:DB:D3:E5:73:93:FC:1C:E5:30:78:D1:5B:24:E8
            X509v3 Authority Key Identifier: 
                keyid:DB:4B:A9:95:2C:AD:05:9F:CF:C8:3C:DE:3B:2C:27:81:D7:28:65:48
                DirName:/CN=Easy-RSA CA
                serial:66:32:E7:15:AE:20:E2:D7:6B:0E:3B:A3:50:C1:25:5A:45:69:14:A0
            X509v3 Extended Key Usage: 
                TLS Web Server Authentication
            X509v3 Key Usage: 
                Digital Signature, Key Encipherment
            X509v3 Subject Alternative Name: 
                DNS:localhost, IP Address:127.0.0.1
    Signature Algorithm: sha256WithRSAEncryption
    Signature Value:
        41:35:5e:7e:14:46:96:3e:c9:8e:fe:88:f8:d6:07:6b:8b:b7:
        8e:02:c4:63:97:79:ec:4a:46:cc:72:4d:7a:cc:9b:13:d9:6b:
        5c:f9:b5:b6:c8:04:cf:f9:e0:23:b2:4e:ec:b0:80:85:84:be:
        a9:1d:8d:4e:8b:26:09:d1:50:83:df:a2:d6:cc:ec:8c:36:b0:
        c4:a9:cb:14:ba:2d:e2:f3:93:9a:e5:ae:fe:a6:b7:37:c2:17:
        52:17:b2:f3:4e:3a:04:88:9b:50:7e:c5:73:6f:63:5c:ab:32:
        47:0d:1c:b4:63:d4:de:c0:6b:ce:ec:26:8d:8c:40:83:c1:c2:
        29:48:f8:0f:a1:b1:f9:5e:2b:91:fb:0d:32:26:db:73:ef:36:
        03:d1:24:3e:59:8d:39:09:29:61:85:64:69:be:ee:ec:6d:dd:
        6d:7c:93:22:b5:44:19:ed:11:f5:46:7d:f5:be:74:ce:46:85:
        5d:24:9f:4e:b8:27:4b:7f:ba:72:5c:f7:24:10:b6:7b:fb:cb:
        a0:d1:59:5b:d3:5f:e9:a3:e9:fd:c3:36:2f:b6:b5:eb:e6:1d:
        9b:71:d6:53:26:95:26:64:14:25:47:b8:3b:d4:96:be:51:98:
        e5:4d:cf:47:66:e8:fc:e9:bc:e6:6c:2b:e6:87:d8:cb:64:82:
        d8:63:31:c9
-----BEGIN CERTIFICATE-----
MIIDdDCCAlygAwIBAgIRAPrucayc+FuATc5L01f4MgkwDQYJKoZIhvcNAQELBQAw
FjEUMBIGA1UEAwwLRWFzeS1SU0EgQ0EwIBcNMjQwNDI1MTUzNDE4WhgPMzAyMzA4
MjcxNTM0MThaMBIxEDAOBgNVBAMMB2FsdHRlc3QwggEiMA0GCSqGSIb3DQEBAQUA
A4IBDwAwggEKAoIBAQCU9n4rQe4A1vUvVGb0QTlp7mQLFUZZzgC2vyqq9w51xOWh
t7OGHCQG+pFB8QuHOu4mJyhiHaw1VOWjrEinmqq+LmBSfN7PwygRQldSnUQkj7C2
+zbvT6p+LFdeB4oD/BgD6FhriJiok6xpAbGc7zv+BEeeKOLGFflc394kHi+k4LIB
lH64AHaw3TZVIvItOsex2Gd+yi0iuNydhzQMwRHHciu47RvYdW0NSeH2vxLdGYSH
Lm3GfX5CMyoFov9dBxCDpMA1qfgAlimfvFNsgRh75MZBVH8So1p3yw/PUoyDmjAD
yndlssALAGeGUHex9Xm3IGIl+DvKzcTa0cCB/duLAgMBAAGjgb4wgbswCQYDVR0T
BAIwADAdBgNVHQ4EFgQUBC6gaADX29Plc5P8HOUweNFbJOgwUQYDVR0jBEowSIAU
20uplSytBZ/PyDzeOywngdcoZUihGqQYMBYxFDASBgNVBAMMC0Vhc3ktUlNBIENB
ghRmMucVriDi12sOO6NQwSVaRWkUoDATBgNVHSUEDDAKBggrBgEFBQcDATALBgNV
HQ8EBAMCBaAwGgYDVR0RBBMwEYIJbG9jYWxob3N0hwR/AAABMA0GCSqGSIb3DQEB
CwUAA4IBAQBBNV5+FEaWPsmO/oj41gdri7eOAsRjl3nsSkbMck16zJsT2Wtc+bW2
yATP+eAjsk7ssICFhL6pHY1OiyYJ0VCD36LWzOyMNrDEqcsUui3i85Oa5a7+prc3
whdSF7LzTjoEiJtQfsVzb2NcqzJHDRy0Y9TewGvO7CaNjECDwcIpSPgPobH5XiuR
+w0yJttz7zYD0SQ+WY05CSlhhWRpvu7sbd1tfJMitUQZ7RH1Rn31vnTORoVdJJ9O
uCdLf7pyXPckELZ7+8ug0Vlb01/po+n9wzYvtrXr5h2bcdZTJpUmZBQlR7g71Ja+
UZjlTc9HZuj86bzmbCvmh9jLZILYYzHJ
-----END CERTIFICATE-----
